target datalayout = "e-m:e-p270:32:32-p271:32:32-p272:64:64-i64:64-i128:128-f80:128-n8:16:32:64-S128"
target triple = "x86_64-pc-linux-gnu"

@.str = private unnamed_addr constant [9 x i8] c"No error\00", align 1
@.str.2 = private unnamed_addr constant [13 x i8] c"Invalid enum\00", align 1
@.str.3 = private unnamed_addr constant [14 x i8] c"Invalid value\00", align 1
@.str.4 = private unnamed_addr constant [18 x i8] c"Invalid operation\00", align 1
@.str.5 = private unnamed_addr constant [14 x i8] c"Out of memory\00", align 1
@.str.6 = private unnamed_addr constant [17 x i8] c"Unknown GL error\00", align 1

; Function Attrs: mustprogress nounwind uwtable
define dso_local noundef ptr @_ZN4pbrt16getGLErrorStringEj(i32 noundef %0) #3 {
  %2 = alloca ptr, align 8
  %3 = alloca i32, align 4
  store i32 %0, ptr %3, align 4, !tbaa !13
  %4 = load i32, ptr %3, align 4, !tbaa !13
  switch i32 %4, label %10 [
    i32 0, label %5
    i32 1280, label %6
    i32 1281, label %7
    i32 1282, label %8
    i32 1285, label %9
  ]

5:                                                ; preds = %1
  store ptr @.str, ptr %2, align 8
  br label %11

6:                                                ; preds = %1
  store ptr @.str.2, ptr %2, align 8
  br label %11

7:                                                ; preds = %1
  store ptr @.str.3, ptr %2, align 8
  br label %11

8:                                                ; preds = %1
  store ptr @.str.4, ptr %2, align 8
  br label %11

9:                                                ; preds = %1
  store ptr @.str.5, ptr %2, align 8
  br label %11

10:                                               ; preds = %1
  store ptr @.str.6, ptr %2, align 8
  br label %11

11:                                               ; preds = %10, %9, %8, %7, %6, %5
  %12 = load ptr, ptr %2, align 8
  ret ptr %12
}