; Function Attrs: mustprogress nofree norecurse nosync nounwind willreturn memory(none) uwtable
define dso_local noundef nonnull ptr @_ZN4pbrt16getGLErrorStringEj(i32 noundef %0) local_unnamed_addr #0 {
  switch i32 %0, label %6 [
    i32 0, label %7
    i32 1280, label %2
    i32 1281, label %3
    i32 1282, label %4
    i32 1285, label %5
  ]

2:                                                ; preds = %1
  br label %7

3:                                                ; preds = %1
  br label %7

4:                                                ; preds = %1
  br label %7

5:                                                ; preds = %1
  br label %7

6:                                                ; preds = %1
  br label %7

7:                                                ; preds = %1, %6, %5, %4, %3, %2
  %.0 = phi ptr [ @.str.6, %6 ], [ @.str.5, %5 ], [ @.str.4, %4 ], [ @.str.3, %3 ], [ @.str.2, %2 ], [ @.str, %1 ]
  ret ptr %.0
}